target datalayout = "e-m:e-p270:32:32-p271:32:32-p272:64:64-i64:64-i128:128-f80:128-n8:16:32:64-S128"
target triple = "x86_64-pc-linux-gnu"

@.str.4 = private unnamed_addr constant [4 x i8] c"Lua\00", align 1
@.str.5 = private unnamed_addr constant [22 x i8] c"GnuTLS %s and PKCS#11\00", align 1
@.str.6 = private unnamed_addr constant [6 x i8] c"3.7.3\00", align 1
@.str.7 = private unnamed_addr constant [10 x i8] c"Gcrypt %s\00", align 1
@.str.8 = private unnamed_addr constant [6 x i8] c"1.9.4\00", align 1
@.str.9 = private unnamed_addr constant [15 x i8] c"Kerberos (MIT)\00", align 1
@.str.10 = private unnamed_addr constant [8 x i8] c"MaxMind\00", align 1
@.str.11 = private unnamed_addr constant [8 x i8] c"nghttp2\00", align 1
@.str.12 = private unnamed_addr constant [8 x i8] c"nghttp3\00", align 1
@.str.13 = private unnamed_addr constant [7 x i8] c"brotli\00", align 1
@.str.14 = private unnamed_addr constant [7 x i8] c"LZ4 %s\00", align 1
@.str.15 = private unnamed_addr constant [6 x i8] c"1.9.3\00", align 1
@.str.16 = private unnamed_addr constant [13 x i8] c"Zstandard %s\00", align 1
@.str.17 = private unnamed_addr constant [6 x i8] c"1.4.8\00", align 1
@.str.18 = private unnamed_addr constant [10 x i8] c"Snappy %s\00", align 1
@.str.19 = private unnamed_addr constant [6 x i8] c"1.1.8\00", align 1
@.str.20 = private unnamed_addr constant [11 x i8] c"libxml2 %s\00", align 1
@.str.21 = private unnamed_addr constant [7 x i8] c"2.9.13\00", align 1
@.str.22 = private unnamed_addr constant [7 x i8] c"libsmi\00", align 1

; Function Attrs: null_pointer_is_valid sspstrong uwtable
define void @epan_gather_compile_info(ptr noundef %0) #5 {
  %2 = alloca ptr, align 8
  store ptr %0, ptr %2, align 8
  %3 = load ptr, ptr %2, align 8
  call void @gather_zlib_compile_info(ptr noundef %3)
  %4 = load ptr, ptr %2, align 8
  call void @gather_zlib_ng_compile_info(ptr noundef %4)
  %5 = load ptr, ptr %2, align 8
  call void @gather_pcre2_compile_info(ptr noundef %5)
  %6 = load ptr, ptr %2, align 8
  call void (ptr, ptr, ...) @without_feature(ptr noundef %6, ptr noundef @.str.4)
  %7 = load ptr, ptr %2, align 8
  call void (ptr, ptr, ...) @with_feature(ptr noundef %7, ptr noundef @.str.5, ptr noundef @.str.6)
  %8 = load ptr, ptr %2, align 8
  call void (ptr, ptr, ...) @with_feature(ptr noundef %8, ptr noundef @.str.7, ptr noundef @.str.8)
  %9 = load ptr, ptr %2, align 8
  call void (ptr, ptr, ...) @with_feature(ptr noundef %9, ptr noundef @.str.9)
  %10 = load ptr, ptr %2, align 8
  call void (ptr, ptr, ...) @without_feature(ptr noundef %10, ptr noundef @.str.10)
  %11 = load ptr, ptr %2, align 8
  call void (ptr, ptr, ...) @without_feature(ptr noundef %11, ptr noundef @.str.11)
  %12 = load ptr, ptr %2, align 8
  call void (ptr, ptr, ...) @without_feature(ptr noundef %12, ptr noundef @.str.12)
  %13 = load ptr, ptr %2, align 8
  call void (ptr, ptr, ...) @with_feature(ptr noundef %13, ptr noundef @.str.13)
  %14 = load ptr, ptr %2, align 8
  call void (ptr, ptr, ...) @with_feature(ptr noundef %14, ptr noundef @.str.14, ptr noundef @.str.15)
  %15 = load ptr, ptr %2, align 8
  call void (ptr, ptr, ...) @with_feature(ptr noundef %15, ptr noundef @.str.16, ptr noundef @.str.17)
  %16 = load ptr, ptr %2, align 8
  call void (ptr, ptr, ...) @with_feature(ptr noundef %16, ptr noundef @.str.18, ptr noundef @.str.19)
  %17 = load ptr, ptr %2, align 8
  call void (ptr, ptr, ...) @with_feature(ptr noundef %17, ptr noundef @.str.20, ptr noundef @.str.21)
  %18 = load ptr, ptr %2, align 8
  call void (ptr, ptr, ...) @without_feature(ptr noundef %18, ptr noundef @.str.22)
  ret void
}