; Function Attrs: null_pointer_is_valid sspstrong uwtable
define void @epan_gather_compile_info(ptr noundef %0) local_unnamed_addr #6 {
  tail call void @gather_zlib_compile_info(ptr noundef %0)
  tail call void @gather_zlib_ng_compile_info(ptr noundef %0)
  tail call void @gather_pcre2_compile_info(ptr noundef %0)
  tail call void (ptr, ptr, ...) @without_feature(ptr noundef %0, ptr noundef nonnull @.str.4)
  tail call void (ptr, ptr, ...) @with_feature(ptr noundef %0, ptr noundef nonnull @.str.5, ptr noundef nonnull @.str.6)
  tail call void (ptr, ptr, ...) @with_feature(ptr noundef %0, ptr noundef nonnull @.str.7, ptr noundef nonnull @.str.8)
  tail call void (ptr, ptr, ...) @with_feature(ptr noundef %0, ptr noundef nonnull @.str.9)
  tail call void (ptr, ptr, ...) @without_feature(ptr noundef %0, ptr noundef nonnull @.str.10)
  tail call void (ptr, ptr, ...) @without_feature(ptr noundef %0, ptr noundef nonnull @.str.11)
  tail call void (ptr, ptr, ...) @without_feature(ptr noundef %0, ptr noundef nonnull @.str.12)
  tail call void (ptr, ptr, ...) @with_feature(ptr noundef %0, ptr noundef nonnull @.str.13)
  tail call void (ptr, ptr, ...) @with_feature(ptr noundef %0, ptr noundef nonnull @.str.14, ptr noundef nonnull @.str.15)
  tail call void (ptr, ptr, ...) @with_feature(ptr noundef %0, ptr noundef nonnull @.str.16, ptr noundef nonnull @.str.17)
  tail call void (ptr, ptr, ...) @with_feature(ptr noundef %0, ptr noundef nonnull @.str.18, ptr noundef nonnull @.str.19)
  tail call void (ptr, ptr, ...) @with_feature(ptr noundef %0, ptr noundef nonnull @.str.20, ptr noundef nonnull @.str.21)
  tail call void (ptr, ptr, ...) @without_feature(ptr noundef %0, ptr noundef nonnull @.str.22)
  ret void
}